; Function Attrs: mustprogress nofree norecurse nosync nounwind willreturn memory(none) uwtable
define noundef zeroext i1 @_ZN6duckdb23utf8proc_grapheme_breakEii(i32 noundef %0, i32 noundef %1) local_unnamed_addr #0 {
  %or.cond.i.i = icmp ugt i32 %0, 1114111
  br i1 %or.cond.i.i, label %_ZN6duckdb21utf8proc_get_propertyEi.exit.i, label %3

3:                                                ; preds = %2
  %4 = lshr i32 %0, 8
  %5 = zext nneg i32 %4 to i64
  %6 = getelementptr inbounds nuw [4352 x i16], ptr @_ZN6duckdbL20utf8proc_stage1tableE, i64 0, i64 %5
  %7 = load i16, ptr %6, align 2, !tbaa !8
  %8 = zext i16 %7 to i32
  %9 = and i32 %0, 255
  %10 = add nuw nsw i32 %9, %8
  %11 = zext nneg i32 %10 to i64
  %12 = getelementptr inbounds nuw [44800 x i16], ptr @_ZN6duckdbL20utf8proc_stage2tableE, i64 0, i64 %11
  %13 = load i16, ptr %12, align 2, !tbaa !8
  %14 = zext i16 %13 to i64
  %15 = getelementptr inbounds nuw %"struct.duckdb::utf8proc_property_struct", ptr @_ZN6duckdbL19utf8proc_propertiesE, i64 %14
  br label %_ZN6duckdb21utf8proc_get_propertyEi.exit.i

_ZN6duckdb21utf8proc_get_propertyEi.exit.i:       ; preds = %3, %2
  %16 = phi ptr [ %15, %3 ], [ @_ZN6duckdbL19utf8proc_propertiesE, %2 ]
  %or.cond.i6.i = icmp ugt i32 %1, 1114111
  br i1 %or.cond.i6.i, label %_ZN6duckdb32utf8proc_grapheme_break_statefulEiiPi.exit, label %17

17:                                               ; preds = %_ZN6duckdb21utf8proc_get_propertyEi.exit.i
  %18 = lshr i32 %1, 8
  %19 = zext nneg i32 %18 to i64
  %20 = getelementptr inbounds nuw [4352 x i16], ptr @_ZN6duckdbL20utf8proc_stage1tableE, i64 0, i64 %19
  %21 = load i16, ptr %20, align 2, !tbaa !8
  %22 = zext i16 %21 to i32
  %23 = and i32 %1, 255
  %24 = add nuw nsw i32 %23, %22
  %25 = zext nneg i32 %24 to i64
  %26 = getelementptr inbounds nuw [44800 x i16], ptr @_ZN6duckdbL20utf8proc_stage2tableE, i64 0, i64 %25
  %27 = load i16, ptr %26, align 2, !tbaa !8
  %28 = zext i16 %27 to i64
  %29 = getelementptr inbounds nuw %"struct.duckdb::utf8proc_property_struct", ptr @_ZN6duckdbL19utf8proc_propertiesE, i64 %28
  br label %_ZN6duckdb32utf8proc_grapheme_break_statefulEiiPi.exit

_ZN6duckdb32utf8proc_grapheme_break_statefulEiiPi.exit: ; preds = %_ZN6duckdb21utf8proc_get_propertyEi.exit.i, %17
  %30 = phi ptr [ %29, %17 ], [ @_ZN6duckdbL19utf8proc_propertiesE, %_ZN6duckdb21utf8proc_get_propertyEi.exit.i ]
  %31 = getelementptr inbounds nuw i8, ptr %16, i64 20
  %32 = load i16, ptr %31, align 4
  %33 = lshr i16 %32, 8
  %34 = and i16 %33, 63
  %35 = getelementptr inbounds nuw i8, ptr %30, i64 20
  %36 = load i16, ptr %35, align 4
  %37 = lshr i16 %36, 8
  %38 = and i16 %37, 63
  %39 = zext nneg i16 %38 to i32
  %40 = icmp eq i16 %34, 0
  br i1 %40, label %_ZN6duckdbL23grapheme_break_extendedEiiiiPi.exit, label %41

41:                                               ; preds = %_ZN6duckdb32utf8proc_grapheme_break_statefulEiiPi.exit
  %42 = icmp eq i16 %34, 2
  %43 = icmp eq i16 %38, 3
  %or.cond.i47.i = and i1 %42, %43
  br i1 %or.cond.i47.i, label %_ZN6duckdbL23grapheme_break_extendedEiiiiPi.exit, label %44

44:                                               ; preds = %41
  %45 = icmp ne i16 %34, 1
  %46 = icmp samesign ult i16 %34, 5
  %or.cond3.i48.i = and i1 %45, %46
  %47 = add nsw i16 %38, -2
  %or.cond5.i49.i = icmp ult i16 %47, 3
  %or.cond57.i50.i = select i1 %or.cond3.i48.i, i1 true, i1 %or.cond5.i49.i
  br i1 %or.cond57.i50.i, label %_ZN6duckdbL23grapheme_break_extendedEiiiiPi.exit, label %48

48:                                               ; preds = %44
  %trunc.i51.i = trunc nuw nsw i16 %34 to i8
  switch i8 %trunc.i51.i, label %55 [
    i8 6, label %49
    i8 9, label %53
    i8 7, label %53
  ]

49:                                               ; preds = %48
  %50 = and i32 %39, 62
  %or.cond7.i60.i = icmp eq i32 %50, 6
  %51 = add nsw i16 %38, -9
  %52 = icmp ult i16 %51, 2
  %or.cond11.i61.i = or i1 %52, %or.cond7.i60.i
  br i1 %or.cond11.i61.i, label %_ZN6duckdbL23grapheme_break_extendedEiiiiPi.exit, label %.thread.i55.i

53:                                               ; preds = %48, %48
  %54 = add nsw i16 %38, -7
  %or.cond15.i52.i = icmp ult i16 %54, 2
  br i1 %or.cond15.i52.i, label %_ZN6duckdbL23grapheme_break_extendedEiiiiPi.exit, label %55

55:                                               ; preds = %53, %48
  %56 = and i16 %32, 15616
  %or.cond17.i53.i = icmp eq i16 %56, 2048
  %57 = icmp eq i16 %38, 8
  %or.cond19.i54.i = and i1 %or.cond17.i53.i, %57
  br i1 %or.cond19.i54.i, label %_ZN6duckdbL23grapheme_break_extendedEiiiiPi.exit, label %.thread.i55.i

.thread.i55.i:                                    ; preds = %55, %49
  %58 = icmp eq i16 %38, 5
  %59 = and i32 %39, 61
  %60 = icmp eq i32 %59, 12
  %or.cond23.i56.i = or i1 %58, %60
  %61 = icmp eq i16 %34, 13
  %or.cond25.i57.i = or i1 %61, %or.cond23.i56.i
  br i1 %or.cond25.i57.i, label %_ZN6duckdbL23grapheme_break_extendedEiiiiPi.exit, label %62

62:                                               ; preds = %.thread.i55.i
  %63 = icmp eq i16 %34, 20
  %64 = icmp eq i16 %38, 19
  %or.cond27.i58.i = and i1 %63, %64
  br i1 %or.cond27.i58.i, label %_ZN6duckdbL23grapheme_break_extendedEiiiiPi.exit, label %65

65:                                               ; preds = %62
  %66 = icmp ne i16 %34, 11
  %67 = icmp ne i16 %38, 11
  %.not56.i59.i = or i1 %66, %67
  br label %_ZN6duckdbL23grapheme_break_extendedEiiiiPi.exit

_ZN6duckdbL23grapheme_break_extendedEiiiiPi.exit: ; preds = %_ZN6duckdb32utf8proc_grapheme_break_statefulEiiPi.exit, %41, %44, %49, %53, %55, %.thread.i55.i, %62, %65
  %.0.i = phi i1 [ true, %_ZN6duckdb32utf8proc_grapheme_break_statefulEiiPi.exit ], [ false, %41 ], [ true, %44 ], [ false, %49 ], [ false, %53 ], [ false, %55 ], [ false, %.thread.i55.i ], [ %.not56.i59.i, %65 ], [ false, %62 ]
  ret i1 %.0.i
}